; Function Attrs: nofree norecurse nosync nounwind memory(read, argmem: readwrite, inaccessiblemem: none) uwtable
define void @png_warning_parameter_unsigned(ptr noundef writeonly captures(address) %0, i32 noundef %1, i32 noundef %2, i64 noundef %3) local_unnamed_addr #7 {
  %5 = alloca [24 x i8], align 16
  call void @llvm.lifetime.start.p0(i64 24, ptr nonnull %5) #21
  call void @llvm.memset.p0.i64(ptr noundef nonnull align 16 dereferenceable(24) %5, i8 0, i64 24, i1 false)
  %6 = getelementptr inbounds nuw i8, ptr %5, i64 24
  %7 = call ptr @png_format_number(ptr noundef nonnull %5, ptr noundef nonnull %6, i32 noundef %2, i64 noundef %3)
  %8 = add i32 %1, -1
  %or.cond.i = icmp ult i32 %8, 8
  br i1 %or.cond.i, label %9, label %png_warning_parameter.exit

9:                                                ; preds = %4
  %10 = zext nneg i32 %1 to i64
  %11 = getelementptr [32 x i8], ptr %0, i64 %10
  %12 = getelementptr i8, ptr %11, i64 -32
  %.not.i.not.i = icmp eq ptr %12, null
  br i1 %.not.i.not.i, label %png_warning_parameter.exit, label %13

13:                                               ; preds = %9
  %14 = load i8, ptr %7, align 1, !tbaa !24
  %.not.i = icmp eq i8 %14, 0
  br i1 %.not.i, label %.loopexit.i.i, label %.lr.ph.i.i

.lr.ph.i.i:                                       ; preds = %13, %.lr.ph.i.i
  %15 = phi i8 [ %19, %.lr.ph.i.i ], [ %14, %13 ]
  %.020.i.i = phi ptr [ %16, %.lr.ph.i.i ], [ %7, %13 ]
  %.219.i.i = phi i64 [ %17, %.lr.ph.i.i ], [ 0, %13 ]
  %16 = getelementptr inbounds nuw i8, ptr %.020.i.i, i64 1
  %17 = add nuw nsw i64 %.219.i.i, 1
  %18 = getelementptr inbounds nuw i8, ptr %12, i64 %.219.i.i
  store i8 %15, ptr %18, align 1, !tbaa !24
  %19 = load i8, ptr %16, align 1, !tbaa !24
  %20 = icmp ne i8 %19, 0
  %21 = icmp samesign ult i64 %.219.i.i, 30
  %22 = select i1 %20, i1 %21, i1 false
  br i1 %22, label %.lr.ph.i.i, label %.loopexit.i.i, !llvm.loop !25

.loopexit.i.i:                                    ; preds = %.lr.ph.i.i, %13
  %.1.i.i = phi i64 [ 0, %13 ], [ %17, %.lr.ph.i.i ]
  %23 = getelementptr inbounds nuw i8, ptr %12, i64 %.1.i.i
  store i8 0, ptr %23, align 1, !tbaa !24
  br label %png_warning_parameter.exit

png_warning_parameter.exit:                       ; preds = %4, %9, %.loopexit.i.i
  call void @llvm.lifetime.end.p0(i64 24, ptr nonnull %5) #21
  ret void
}